; Function Attrs: nounwind uwtable
define internal fastcc double @findVertical(ptr noundef %0, double noundef %1, double noundef %2, double noundef %3, double noundef %4, double noundef %5) unnamed_addr #0 {
  %7 = alloca [4 x %struct.pointf_s], align 16
  %8 = alloca [4 x %struct.pointf_s], align 16
  call void @llvm.lifetime.start.p0(i64 64, ptr nonnull %7) #11
  call void @llvm.lifetime.start.p0(i64 64, ptr nonnull %8) #11
  %9 = fcmp oeq double %1, %2
  br i1 %9, label %43, label %10

10:                                               ; preds = %6
  %11 = load double, ptr %0, align 8, !tbaa !62
  %12 = fcmp olt double %11, %3
  %13 = fcmp ogt double %11, %3
  %..i.i = zext i1 %13 to i32
  %.0.i.i = select i1 %12, i32 -1, i32 %..i.i
  %14 = icmp eq i32 %.0.i.i, 0
  %spec.select.i = zext i1 %14 to i32
  br label %15

15:                                               ; preds = %15, %10
  %indvars.iv.i = phi i64 [ 1, %10 ], [ %indvars.iv.next.i, %15 ]
  %.122.i = phi i32 [ %spec.select.i, %10 ], [ %spec.select17.i, %15 ]
  %.01620.i = phi i32 [ %.0.i.i, %10 ], [ %.0.i19.i, %15 ]
  %16 = getelementptr inbounds nuw %struct.pointf_s, ptr %0, i64 %indvars.iv.i
  %17 = load double, ptr %16, align 8, !tbaa !62
  %18 = fcmp olt double %17, %3
  %19 = fcmp ogt double %17, %3
  %..i18.i = zext i1 %19 to i32
  %.0.i19.i = select i1 %18, i32 -1, i32 %..i18.i
  %20 = icmp ne i32 %.0.i19.i, %.01620.i
  %21 = icmp ne i32 %.01620.i, 0
  %or.cond.i = and i1 %21, %20
  %22 = zext i1 %or.cond.i to i32
  %spec.select17.i = add nuw nsw i32 %.122.i, %22
  %indvars.iv.next.i = add nuw nsw i64 %indvars.iv.i, 1
  %exitcond.not.i = icmp eq i64 %indvars.iv.next.i, 4
  br i1 %exitcond.not.i, label %countVertCross.exit, label %15, !llvm.loop !63

countVertCross.exit:                              ; preds = %15
  switch i32 %spec.select17.i, label %35 [
    i32 0, label %43
    i32 1, label %23
  ]

23:                                               ; preds = %countVertCross.exit
  %24 = getelementptr inbounds nuw i8, ptr %0, i64 48
  %25 = load double, ptr %24, align 8, !tbaa !62
  %26 = fsub double %25, %3
  %27 = tail call double @llvm.fabs.f64(double %26)
  %28 = fcmp ugt double %27, 5.000000e-03
  br i1 %28, label %35, label %29

29:                                               ; preds = %23
  %30 = getelementptr inbounds nuw i8, ptr %0, i64 56
  %31 = load double, ptr %30, align 8, !tbaa !64
  %32 = fcmp ugt double %4, %31
  %33 = fcmp ugt double %31, %5
  %or.cond = or i1 %32, %33
  br i1 %or.cond, label %34, label %43

34:                                               ; preds = %29
  br label %43

35:                                               ; preds = %countVertCross.exit, %23
  %36 = call { double, double } @Bezier(ptr noundef nonnull %0, double noundef 5.000000e-01, ptr noundef nonnull %7, ptr noundef nonnull %8) #11
  %37 = fadd double %1, %2
  %38 = fmul double %37, 5.000000e-01
  %39 = call fastcc double @findVertical(ptr noundef nonnull %7, double noundef %1, double noundef %38, double noundef %3, double noundef %4, double noundef %5)
  %40 = fcmp ult double %39, 0.000000e+00
  br i1 %40, label %41, label %43

41:                                               ; preds = %35
  %42 = call fastcc double @findVertical(ptr noundef nonnull %8, double noundef %38, double noundef %2, double noundef %3, double noundef %4, double noundef %5)
  br label %43

43:                                               ; preds = %35, %29, %countVertCross.exit, %6, %41, %34
  %.0 = phi double [ -1.000000e+00, %34 ], [ %42, %41 ], [ %1, %6 ], [ -1.000000e+00, %countVertCross.exit ], [ %2, %29 ], [ %39, %35 ]
  call void @llvm.lifetime.end.p0(i64 64, ptr nonnull %8) #11
  call void @llvm.lifetime.end.p0(i64 64, ptr nonnull %7) #11
  ret double %.0
}